; Function Attrs: mustprogress nounwind uwtable
define hidden noundef zeroext i1 @_ZNK15ConnectionGraph16has_been_reducedEP7PhiNodeP13SafePointNode(ptr nocapture noundef nonnull readnone align 8 dereferenceable(232) %0, ptr noundef readnone %1, ptr noundef %2) local_unnamed_addr #0 align 2 {
  %4 = load ptr, ptr %2, align 8
  %5 = getelementptr inbounds i8, ptr %4, i64 144
  %6 = load ptr, ptr %5, align 8
  %7 = tail call noundef ptr %6(ptr noundef nonnull align 8 dereferenceable(81) %2) #12
  %8 = tail call noundef i32 @_ZNK8JVMState11debug_startEv(ptr noundef nonnull align 8 dereferenceable(64) %7) #12
  %9 = getelementptr inbounds i8, ptr %7, i64 24
  %10 = tail call noundef i32 @_ZNK8JVMState9debug_endEv(ptr noundef nonnull align 8 dereferenceable(64) %7) #12
  %11 = icmp ult i32 %8, %10
  br i1 %11, label %.lr.ph, label %._crit_edge

.lr.ph:                                           ; preds = %3
  %12 = getelementptr inbounds i8, ptr %2, i64 8
  %13 = zext i32 %8 to i64
  br label %14

14:                                               ; preds = %.lr.ph, %31
  %indvars.iv = phi i64 [ %13, %.lr.ph ], [ %indvars.iv.next, %31 ]
  %15 = load ptr, ptr %12, align 8
  %16 = getelementptr inbounds ptr, ptr %15, i64 %indvars.iv
  %17 = load ptr, ptr %16, align 8
  %18 = getelementptr inbounds i8, ptr %17, i64 44
  %19 = load i32, ptr %18, align 4
  %20 = and i32 %19, 8191
  %21 = icmp eq i32 %20, 4100
  br i1 %21, label %22, label %31

22:                                               ; preds = %14
  %23 = load i32, ptr %9, align 8
  %24 = getelementptr inbounds i8, ptr %17, i64 64
  %25 = load i32, ptr %24, align 8
  %26 = add i32 %25, %23
  %27 = zext i32 %26 to i64
  %28 = getelementptr inbounds ptr, ptr %15, i64 %27
  %29 = load ptr, ptr %28, align 8
  %30 = icmp eq ptr %29, %1
  br i1 %30, label %._crit_edge, label %31

31:                                               ; preds = %14, %22
  %indvars.iv.next = add nuw nsw i64 %indvars.iv, 1
  %32 = tail call noundef i32 @_ZNK8JVMState9debug_endEv(ptr noundef nonnull align 8 dereferenceable(64) %7) #12
  %33 = zext i32 %32 to i64
  %34 = icmp ult i64 %indvars.iv.next, %33
  br i1 %34, label %14, label %._crit_edge, !llvm.loop !83

._crit_edge:                                      ; preds = %22, %31, %3
  %.lcssa = phi i1 [ false, %3 ], [ false, %31 ], [ true, %22 ]
  ret i1 %.lcssa
}